target datalayout = "e-m:e-p270:32:32-p271:32:32-p272:64:64-i64:64-i128:128-f80:128-n8:16:32:64-S128"
target triple = "x86_64-pc-linux-gnu"

@.str.35 = private unnamed_addr constant [4 x i8] c"end\00", align 1
@.str.36 = private unnamed_addr constant [8 x i8] c"endcase\00", align 1
@.str.37 = private unnamed_addr constant [9 x i8] c"endclass\00", align 1
@.str.38 = private unnamed_addr constant [12 x i8] c"endfunction\00", align 1
@.str.39 = private unnamed_addr constant [13 x i8] c"endinterface\00", align 1
@.str.40 = private unnamed_addr constant [10 x i8] c"endmodule\00", align 1
@.str.41 = private unnamed_addr constant [11 x i8] c"endpackage\00", align 1
@.str.42 = private unnamed_addr constant [8 x i8] c"endtask\00", align 1

; Function Attrs: mustprogress nounwind uwtable
define dso_local noundef zeroext i1 @_ZN14V3OutFormatter8tokenEndEPKc(ptr noundef %0) #7 align 2 {
  %2 = alloca ptr, align 8
  store ptr %0, ptr %2, align 8, !tbaa !35
  %3 = load ptr, ptr %2, align 8, !tbaa !35
  %4 = call noundef zeroext i1 @_ZN14V3OutFormatter10tokenMatchEPKcS1_(ptr noundef %3, ptr noundef @.str.35)
  br i1 %4, label %26, label %5

5:                                                ; preds = %1
  %6 = load ptr, ptr %2, align 8, !tbaa !35
  %7 = call noundef zeroext i1 @_ZN14V3OutFormatter10tokenMatchEPKcS1_(ptr noundef %6, ptr noundef @.str.36)
  br i1 %7, label %26, label %8

8:                                                ; preds = %5
  %9 = load ptr, ptr %2, align 8, !tbaa !35
  %10 = call noundef zeroext i1 @_ZN14V3OutFormatter10tokenMatchEPKcS1_(ptr noundef %9, ptr noundef @.str.37)
  br i1 %10, label %26, label %11

11:                                               ; preds = %8
  %12 = load ptr, ptr %2, align 8, !tbaa !35
  %13 = call noundef zeroext i1 @_ZN14V3OutFormatter10tokenMatchEPKcS1_(ptr noundef %12, ptr noundef @.str.38)
  br i1 %13, label %26, label %14

14:                                               ; preds = %11
  %15 = load ptr, ptr %2, align 8, !tbaa !35
  %16 = call noundef zeroext i1 @_ZN14V3OutFormatter10tokenMatchEPKcS1_(ptr noundef %15, ptr noundef @.str.39)
  br i1 %16, label %26, label %17

17:                                               ; preds = %14
  %18 = load ptr, ptr %2, align 8, !tbaa !35
  %19 = call noundef zeroext i1 @_ZN14V3OutFormatter10tokenMatchEPKcS1_(ptr noundef %18, ptr noundef @.str.40)
  br i1 %19, label %26, label %20

20:                                               ; preds = %17
  %21 = load ptr, ptr %2, align 8, !tbaa !35
  %22 = call noundef zeroext i1 @_ZN14V3OutFormatter10tokenMatchEPKcS1_(ptr noundef %21, ptr noundef @.str.41)
  br i1 %22, label %26, label %23

23:                                               ; preds = %20
  %24 = load ptr, ptr %2, align 8, !tbaa !35
  %25 = call noundef zeroext i1 @_ZN14V3OutFormatter10tokenMatchEPKcS1_(ptr noundef %24, ptr noundef @.str.42)
  br label %26

26:                                               ; preds = %23, %20, %17, %14, %11, %8, %5, %1
  %27 = phi i1 [ true, %20 ], [ true, %17 ], [ true, %14 ], [ true, %11 ], [ true, %8 ], [ true, %5 ], [ true, %1 ], [ %25, %23 ]
  ret i1 %27
}