; Function Attrs: mustprogress nofree nounwind willreturn memory(read) uwtable
define dso_local noundef zeroext i1 @_ZN14V3OutFormatter8tokenEndEPKc(ptr noundef readonly captures(none) %0) local_unnamed_addr #12 align 2 {
  %scevgep = getelementptr i8, ptr %0, i64 3
  br label %.lr.ph.i

.lr.ph.i:                                         ; preds = %5, %1
  %2 = phi i8 [ %7, %5 ], [ 101, %1 ]
  %.019.i.idx = phi i64 [ %.019.i.add, %5 ], [ 0, %1 ]
  %.0918.i = phi ptr [ %6, %5 ], [ %0, %1 ]
  %3 = load i8, ptr %.0918.i, align 1, !tbaa !43
  %4 = icmp eq i8 %2, %3
  br i1 %4, label %5, label %.loopexit63

5:                                                ; preds = %.lr.ph.i
  %6 = getelementptr inbounds nuw i8, ptr %.0918.i, i64 1
  %.019.i.add = add nuw nsw i64 %.019.i.idx, 1
  %.ptr = getelementptr inbounds nuw i8, ptr @.str.35, i64 %.019.i.add
  %7 = load i8, ptr %.ptr, align 1, !tbaa !43
  %exitcond = icmp eq i64 %.019.i.add, 3
  br i1 %exitcond, label %._crit_edge.i, label %.lr.ph.i, !llvm.loop !175

._crit_edge.i:                                    ; preds = %5
  %8 = load i8, ptr %scevgep, align 1, !tbaa !43
  %.not14.i = icmp eq i8 %8, 0
  br i1 %.not14.i, label %_ZN14V3OutFormatter10tokenMatchEPKcS1_.exit, label %9

9:                                                ; preds = %._crit_edge.i
  %10 = sext i8 %8 to i32
  %11 = tail call i32 @isspace(i32 noundef %10) #33
  %.not15.i = icmp eq i32 %11, 0
  br i1 %.not15.i, label %.loopexit63, label %_ZN14V3OutFormatter10tokenMatchEPKcS1_.exit

.loopexit63:                                      ; preds = %.lr.ph.i, %9
  %scevgep74 = getelementptr i8, ptr %0, i64 7
  br label %.lr.ph.i8

.lr.ph.i8:                                        ; preds = %15, %.loopexit63
  %12 = phi i8 [ %17, %15 ], [ 101, %.loopexit63 ]
  %.019.i9.idx = phi i64 [ %.019.i9.add, %15 ], [ 0, %.loopexit63 ]
  %.0918.i10 = phi ptr [ %16, %15 ], [ %0, %.loopexit63 ]
  %13 = load i8, ptr %.0918.i10, align 1, !tbaa !43
  %14 = icmp eq i8 %12, %13
  br i1 %14, label %15, label %.loopexit62

15:                                               ; preds = %.lr.ph.i8
  %16 = getelementptr inbounds nuw i8, ptr %.0918.i10, i64 1
  %.019.i9.add = add nuw nsw i64 %.019.i9.idx, 1
  %.ptr84 = getelementptr inbounds nuw i8, ptr @.str.36, i64 %.019.i9.add
  %17 = load i8, ptr %.ptr84, align 1, !tbaa !43
  %exitcond75 = icmp eq i64 %.019.i9.add, 7
  br i1 %exitcond75, label %._crit_edge.i13, label %.lr.ph.i8, !llvm.loop !175

._crit_edge.i13:                                  ; preds = %15
  %18 = load i8, ptr %scevgep74, align 1, !tbaa !43
  %.not14.i14 = icmp eq i8 %18, 0
  br i1 %.not14.i14, label %_ZN14V3OutFormatter10tokenMatchEPKcS1_.exit, label %19

19:                                               ; preds = %._crit_edge.i13
  %20 = sext i8 %18 to i32
  %21 = tail call i32 @isspace(i32 noundef %20) #33
  %.not15.i15 = icmp eq i32 %21, 0
  br i1 %.not15.i15, label %.loopexit62, label %_ZN14V3OutFormatter10tokenMatchEPKcS1_.exit

.loopexit62:                                      ; preds = %.lr.ph.i8, %19
  %scevgep76 = getelementptr i8, ptr %0, i64 8
  br label %.lr.ph.i17

.lr.ph.i17:                                       ; preds = %25, %.loopexit62
  %22 = phi i8 [ %27, %25 ], [ 101, %.loopexit62 ]
  %.019.i18.idx = phi i64 [ %.019.i18.add, %25 ], [ 0, %.loopexit62 ]
  %.0918.i19 = phi ptr [ %26, %25 ], [ %0, %.loopexit62 ]
  %23 = load i8, ptr %.0918.i19, align 1, !tbaa !43
  %24 = icmp eq i8 %22, %23
  br i1 %24, label %25, label %.loopexit61

25:                                               ; preds = %.lr.ph.i17
  %26 = getelementptr inbounds nuw i8, ptr %.0918.i19, i64 1
  %.019.i18.add = add nuw nsw i64 %.019.i18.idx, 1
  %.ptr85 = getelementptr inbounds nuw i8, ptr @.str.37, i64 %.019.i18.add
  %27 = load i8, ptr %.ptr85, align 1, !tbaa !43
  %exitcond77 = icmp eq i64 %.019.i18.add, 8
  br i1 %exitcond77, label %._crit_edge.i22, label %.lr.ph.i17, !llvm.loop !175

._crit_edge.i22:                                  ; preds = %25
  %28 = load i8, ptr %scevgep76, align 1, !tbaa !43
  %.not14.i23 = icmp eq i8 %28, 0
  br i1 %.not14.i23, label %_ZN14V3OutFormatter10tokenMatchEPKcS1_.exit, label %29

29:                                               ; preds = %._crit_edge.i22
  %30 = sext i8 %28 to i32
  %31 = tail call i32 @isspace(i32 noundef %30) #33
  %.not15.i24 = icmp eq i32 %31, 0
  br i1 %.not15.i24, label %.loopexit61, label %_ZN14V3OutFormatter10tokenMatchEPKcS1_.exit

.loopexit61:                                      ; preds = %.lr.ph.i17, %29
  %scevgep78 = getelementptr i8, ptr %0, i64 11
  br label %.lr.ph.i26

.lr.ph.i26:                                       ; preds = %35, %.loopexit61
  %32 = phi i8 [ %37, %35 ], [ 101, %.loopexit61 ]
  %.019.i27.idx = phi i64 [ %.019.i27.add, %35 ], [ 0, %.loopexit61 ]
  %.0918.i28 = phi ptr [ %36, %35 ], [ %0, %.loopexit61 ]
  %33 = load i8, ptr %.0918.i28, align 1, !tbaa !43
  %34 = icmp eq i8 %32, %33
  br i1 %34, label %35, label %.loopexit60

35:                                               ; preds = %.lr.ph.i26
  %36 = getelementptr inbounds nuw i8, ptr %.0918.i28, i64 1
  %.019.i27.add = add nuw nsw i64 %.019.i27.idx, 1
  %.ptr86 = getelementptr inbounds nuw i8, ptr @.str.38, i64 %.019.i27.add
  %37 = load i8, ptr %.ptr86, align 1, !tbaa !43
  %exitcond79 = icmp eq i64 %.019.i27.add, 11
  br i1 %exitcond79, label %._crit_edge.i31, label %.lr.ph.i26, !llvm.loop !175

._crit_edge.i31:                                  ; preds = %35
  %38 = load i8, ptr %scevgep78, align 1, !tbaa !43
  %.not14.i32 = icmp eq i8 %38, 0
  br i1 %.not14.i32, label %_ZN14V3OutFormatter10tokenMatchEPKcS1_.exit, label %39

39:                                               ; preds = %._crit_edge.i31
  %40 = sext i8 %38 to i32
  %41 = tail call i32 @isspace(i32 noundef %40) #33
  %.not15.i33 = icmp eq i32 %41, 0
  br i1 %.not15.i33, label %.loopexit60, label %_ZN14V3OutFormatter10tokenMatchEPKcS1_.exit

.loopexit60:                                      ; preds = %.lr.ph.i26, %39
  %scevgep80 = getelementptr i8, ptr %0, i64 12
  br label %.lr.ph.i35

.lr.ph.i35:                                       ; preds = %45, %.loopexit60
  %42 = phi i8 [ %47, %45 ], [ 101, %.loopexit60 ]
  %.019.i36.idx = phi i64 [ %.019.i36.add, %45 ], [ 0, %.loopexit60 ]
  %.0918.i37 = phi ptr [ %46, %45 ], [ %0, %.loopexit60 ]
  %43 = load i8, ptr %.0918.i37, align 1, !tbaa !43
  %44 = icmp eq i8 %42, %43
  br i1 %44, label %45, label %.loopexit59

45:                                               ; preds = %.lr.ph.i35
  %46 = getelementptr inbounds nuw i8, ptr %.0918.i37, i64 1
  %.019.i36.add = add nuw nsw i64 %.019.i36.idx, 1
  %.ptr87 = getelementptr inbounds nuw i8, ptr @.str.39, i64 %.019.i36.add
  %47 = load i8, ptr %.ptr87, align 1, !tbaa !43
  %exitcond81 = icmp eq i64 %.019.i36.add, 12
  br i1 %exitcond81, label %._crit_edge.i40, label %.lr.ph.i35, !llvm.loop !175

._crit_edge.i40:                                  ; preds = %45
  %48 = load i8, ptr %scevgep80, align 1, !tbaa !43
  %.not14.i41 = icmp eq i8 %48, 0
  br i1 %.not14.i41, label %_ZN14V3OutFormatter10tokenMatchEPKcS1_.exit, label %49

49:                                               ; preds = %._crit_edge.i40
  %50 = sext i8 %48 to i32
  %51 = tail call i32 @isspace(i32 noundef %50) #33
  %.not15.i42 = icmp eq i32 %51, 0
  br i1 %.not15.i42, label %.loopexit59, label %_ZN14V3OutFormatter10tokenMatchEPKcS1_.exit

.loopexit59:                                      ; preds = %.lr.ph.i35, %49
  %scevgep82 = getelementptr i8, ptr %0, i64 9
  br label %.lr.ph.i44

.lr.ph.i44:                                       ; preds = %55, %.loopexit59
  %52 = phi i8 [ %57, %55 ], [ 101, %.loopexit59 ]
  %.019.i45.idx = phi i64 [ %.019.i45.add, %55 ], [ 0, %.loopexit59 ]
  %.0918.i46 = phi ptr [ %56, %55 ], [ %0, %.loopexit59 ]
  %53 = load i8, ptr %.0918.i46, align 1, !tbaa !43
  %54 = icmp eq i8 %52, %53
  br i1 %54, label %55, label %.loopexit

55:                                               ; preds = %.lr.ph.i44
  %56 = getelementptr inbounds nuw i8, ptr %.0918.i46, i64 1
  %.019.i45.add = add nuw nsw i64 %.019.i45.idx, 1
  %.ptr88 = getelementptr inbounds nuw i8, ptr @.str.40, i64 %.019.i45.add
  %57 = load i8, ptr %.ptr88, align 1, !tbaa !43
  %exitcond83 = icmp eq i64 %.019.i45.add, 9
  br i1 %exitcond83, label %._crit_edge.i49, label %.lr.ph.i44, !llvm.loop !175

._crit_edge.i49:                                  ; preds = %55
  %58 = load i8, ptr %scevgep82, align 1, !tbaa !43
  %.not14.i50 = icmp eq i8 %58, 0
  br i1 %.not14.i50, label %_ZN14V3OutFormatter10tokenMatchEPKcS1_.exit, label %59

59:                                               ; preds = %._crit_edge.i49
  %60 = sext i8 %58 to i32
  %61 = tail call i32 @isspace(i32 noundef %60) #33
  %.not15.i51 = icmp eq i32 %61, 0
  br i1 %.not15.i51, label %.loopexit, label %_ZN14V3OutFormatter10tokenMatchEPKcS1_.exit

.loopexit:                                        ; preds = %.lr.ph.i44, %59
  %62 = tail call noundef zeroext i1 @_ZN14V3OutFormatter10tokenMatchEPKcS1_(ptr noundef %0, ptr noundef nonnull @.str.41)
  br i1 %62, label %_ZN14V3OutFormatter10tokenMatchEPKcS1_.exit, label %63

63:                                               ; preds = %.loopexit
  %64 = tail call noundef zeroext i1 @_ZN14V3OutFormatter10tokenMatchEPKcS1_(ptr noundef %0, ptr noundef nonnull @.str.42)
  br label %_ZN14V3OutFormatter10tokenMatchEPKcS1_.exit

_ZN14V3OutFormatter10tokenMatchEPKcS1_.exit:      ; preds = %59, %._crit_edge.i49, %49, %._crit_edge.i40, %39, %._crit_edge.i31, %29, %._crit_edge.i22, %19, %._crit_edge.i13, %9, %._crit_edge.i, %63, %.loopexit
  %65 = phi i1 [ true, %.loopexit ], [ %64, %63 ], [ true, %._crit_edge.i ], [ true, %9 ], [ true, %._crit_edge.i13 ], [ true, %19 ], [ true, %._crit_edge.i22 ], [ true, %29 ], [ true, %._crit_edge.i31 ], [ true, %39 ], [ true, %._crit_edge.i40 ], [ true, %49 ], [ true, %._crit_edge.i49 ], [ true, %59 ]
  ret i1 %65
}